; Function Attrs: mustprogress uwtable
define noundef signext i8 @_ZNK6icu_7713FormattedList12nextPositionERNS_24ConstrainedFieldPositionER10UErrorCode(ptr noundef nonnull readonly align 8 captures(none) dereferenceable(20) %0, ptr noundef nonnull align 8 dereferenceable(25) %1, ptr noundef nonnull align 4 dereferenceable(4) %2) unnamed_addr #1 align 2 {
  %4 = load i32, ptr %2, align 4, !tbaa !13
  %5 = icmp slt i32 %4, 1
  br i1 %5, label %6, label %18

6:                                                ; preds = %3
  %7 = getelementptr inbounds nuw i8, ptr %0, i64 8
  %8 = load ptr, ptr %7, align 8, !tbaa !17
  %9 = icmp eq ptr %8, null
  br i1 %9, label %10, label %13

10:                                               ; preds = %6
  %11 = getelementptr inbounds nuw i8, ptr %0, i64 16
  %12 = load i32, ptr %11, align 8, !tbaa !21
  store i32 %12, ptr %2, align 4, !tbaa !13
  br label %18

13:                                               ; preds = %6
  %14 = load ptr, ptr %8, align 8, !tbaa !15
  %15 = getelementptr inbounds nuw i8, ptr %14, i64 40
  %16 = load ptr, ptr %15, align 8
  %17 = tail call noundef signext i8 %16(ptr noundef nonnull align 8 dereferenceable(300) %8, ptr noundef nonnull align 8 dereferenceable(25) %1, ptr noundef nonnull align 4 dereferenceable(4) %2)
  br label %18

18:                                               ; preds = %3, %13, %10
  %.0 = phi i8 [ 0, %10 ], [ %17, %13 ], [ 0, %3 ]
  ret i8 %.0
}